target datalayout = "e-m:e-p270:32:32-p271:32:32-p272:64:64-i64:64-i128:128-f80:128-n8:16:32:64-S128"
target triple = "x86_64-pc-linux-gnu"

%struct.macroblockd = type { i32, i32, i32, i8, [3 x %struct.macroblockd_plane], %struct.TileInfo, ptr, i8, i8, i8, i8, ptr, ptr, ptr, ptr, ptr, i32, i32, i32, i32, i32, [2 x ptr], ptr, [3 x ptr], [3 x [32 x i8]], ptr, [32 x i8], ptr, ptr, [32 x i8], [3 x %struct.WienerInfo], [3 x %struct.SgrprojInfo], i8, i8, [29 x [8 x %struct.candidate_mv]], [29 x [8 x i16]], i8, i8, [8 x i8], ptr, i32, [8 x i32], [8 x i32], i32, i32, ptr, ptr, i8, [4 x i8], [4 x i8], [7 x i8], [32768 x i8], %struct.cfl_ctx, [2 x i16], ptr, [2 x ptr] }
%struct.macroblockd_plane = type { i8, i32, i32, %struct.buf_2d, [2 x %struct.buf_2d], ptr, ptr, [8 x [2 x i16]], ptr, i8, i8, [8 x [19 x ptr]], [8 x [19 x ptr]] }
%struct.buf_2d = type { ptr, ptr, i32, i32, i32 }
%struct.TileInfo = type { i32, i32, i32, i32, i32, i32 }
%struct.WienerInfo = type { [8 x i16], [8 x i16] }
%struct.SgrprojInfo = type { i32, [2 x i32] }
%struct.candidate_mv = type { %union.int_mv, %union.int_mv }
%union.int_mv = type { i32 }
%struct.cfl_ctx = type { [1024 x i16], [1024 x i16], [2 x i32], i32, [2 x [32 x i16]], i32, i32, i32, i32, i32, i32 }
%struct.MB_MODE_INFO = type <{ i8, i8, i8, i8, i32, [2 x %union.int_mv], [2 x i8], [2 x i8], %union.int_interpfilters, i8, i8, i8, i8, %struct.WarpedMotionParams, i8, i8, [6 x i8], %struct.INTERINTER_COMPOUND_DATA, [2 x i8], %struct.FILTER_INTRA_MODE_INFO, i8, i8, %struct.PALETTE_MODE_INFO, i8, i8, [16 x i8], i8, [4 x i8], i16, [7 x i8] }>
%union.int_interpfilters = type { i32 }
%struct.WarpedMotionParams = type { [8 x i32], i16, i16, i16, i16, i8, i8 }
%struct.INTERINTER_COMPOUND_DATA = type { ptr, i8, i8, i8, i8 }
%struct.FILTER_INTRA_MODE_INFO = type { i8, i8 }
%struct.PALETTE_MODE_INFO = type { [24 x i16], [2 x i8] }
%struct.InterpFilters = type { i16, i16 }

; Function Attrs: nounwind uwtable
define internal zeroext i8 @av1_extract_interp_filter(i32 %0, i32 noundef %1) #0 {
  %3 = alloca %union.int_interpfilters, align 4
  %4 = alloca i32, align 4
  %5 = getelementptr inbounds nuw %union.int_interpfilters, ptr %3, i32 0, i32 0
  store i32 %0, ptr %5, align 4
  store i32 %1, ptr %4, align 4
  %6 = load i32, ptr %4, align 4
  %7 = icmp ne i32 %6, 0
  br i1 %7, label %8, label %12

8:                                                ; preds = %2
  %9 = getelementptr inbounds nuw %struct.InterpFilters, ptr %3, i32 0, i32 1
  %10 = load i16, ptr %9, align 2
  %11 = zext i16 %10 to i32
  br label %16

12:                                               ; preds = %2
  %13 = getelementptr inbounds nuw %struct.InterpFilters, ptr %3, i32 0, i32 0
  %14 = load i16, ptr %13, align 4
  %15 = zext i16 %14 to i32
  br label %16

16:                                               ; preds = %12, %8
  %17 = phi i32 [ %11, %8 ], [ %15, %12 ]
  %18 = trunc i32 %17 to i8
  ret i8 %18
}

; Function Attrs: nounwind uwtable
define internal zeroext i8 @get_ref_filter_type(ptr noundef %0, ptr noundef %1, i32 noundef %2, i8 noundef signext %3) #0 {
  %5 = alloca ptr, align 8
  %6 = alloca ptr, align 8
  %7 = alloca i32, align 4
  %8 = alloca i8, align 1
  store ptr %0, ptr %5, align 8
  store ptr %1, ptr %6, align 8
  store i32 %2, ptr %7, align 4
  store i8 %3, ptr %8, align 1
  %9 = load ptr, ptr %5, align 8
  %10 = getelementptr inbounds nuw %struct.MB_MODE_INFO, ptr %9, i32 0, i32 6
  %11 = getelementptr inbounds [2 x i8], ptr %10, i64 0, i64 0
  %12 = load i8, ptr %11, align 8
  %13 = sext i8 %12 to i32
  %14 = load i8, ptr %8, align 1
  %15 = sext i8 %14 to i32
  %16 = icmp eq i32 %13, %15
  br i1 %16, label %26, label %17

17:                                               ; preds = %4
  %18 = load ptr, ptr %5, align 8
  %19 = getelementptr inbounds nuw %struct.MB_MODE_INFO, ptr %18, i32 0, i32 6
  %20 = getelementptr inbounds [2 x i8], ptr %19, i64 0, i64 1
  %21 = load i8, ptr %20, align 1
  %22 = sext i8 %21 to i32
  %23 = load i8, ptr %8, align 1
  %24 = sext i8 %23 to i32
  %25 = icmp eq i32 %22, %24
  br i1 %25, label %26, label %35

26:                                               ; preds = %17, %4
  %27 = load ptr, ptr %5, align 8
  %28 = getelementptr inbounds nuw %struct.MB_MODE_INFO, ptr %27, i32 0, i32 8
  %29 = load i32, ptr %7, align 4
  %30 = and i32 %29, 1
  %31 = getelementptr inbounds nuw %union.int_interpfilters, ptr %28, i32 0, i32 0
  %32 = load i32, ptr %31, align 4
  %33 = call zeroext i8 @av1_extract_interp_filter(i32 %32, i32 noundef %30)
  %34 = zext i8 %33 to i32
  br label %36

35:                                               ; preds = %17
  br label %36

36:                                               ; preds = %35, %26
  %37 = phi i32 [ %34, %26 ], [ 3, %35 ]
  %38 = trunc i32 %37 to i8
  ret i8 %38
}

; Function Attrs: nounwind uwtable
define hidden i32 @av1_get_pred_context_switchable_interp(ptr noundef %0, i32 noundef %1) #0 {
  %3 = alloca ptr, align 8
  %4 = alloca i32, align 4
  %5 = alloca ptr, align 8
  %6 = alloca i32, align 4
  %7 = alloca i8, align 1
  %8 = alloca i32, align 4
  %9 = alloca i32, align 4
  %10 = alloca i32, align 4
  store ptr %0, ptr %3, align 8
  store i32 %1, ptr %4, align 4
  %11 = load ptr, ptr %3, align 8
  %12 = getelementptr inbounds nuw %struct.macroblockd, ptr %11, i32 0, i32 6
  %13 = load ptr, ptr %12, align 8
  %14 = getelementptr inbounds ptr, ptr %13, i64 0
  %15 = load ptr, ptr %14, align 8
  store ptr %15, ptr %5, align 8
  %16 = load ptr, ptr %5, align 8
  %17 = getelementptr inbounds nuw %struct.MB_MODE_INFO, ptr %16, i32 0, i32 6
  %18 = getelementptr inbounds [2 x i8], ptr %17, i64 0, i64 1
  %19 = load i8, ptr %18, align 1
  %20 = sext i8 %19 to i32
  %21 = icmp sgt i32 %20, 0
  %22 = zext i1 %21 to i32
  %23 = mul nsw i32 %22, 4
  store i32 %23, ptr %6, align 4
  %24 = load ptr, ptr %5, align 8
  %25 = getelementptr inbounds nuw %struct.MB_MODE_INFO, ptr %24, i32 0, i32 6
  %26 = getelementptr inbounds [2 x i8], ptr %25, i64 0, i64 0
  %27 = load i8, ptr %26, align 8
  store i8 %27, ptr %7, align 1
  %28 = load i32, ptr %6, align 4
  %29 = load i32, ptr %4, align 4
  %30 = and i32 %29, 1
  %31 = mul nsw i32 %30, 8
  %32 = add nsw i32 %28, %31
  store i32 %32, ptr %8, align 4
  store i32 3, ptr %9, align 4
  store i32 3, ptr %10, align 4
  %33 = load ptr, ptr %3, align 8
  %34 = getelementptr inbounds nuw %struct.macroblockd, ptr %33, i32 0, i32 8
  %35 = load i8, ptr %34, align 1
  %36 = trunc i8 %35 to i1
  br i1 %36, label %37, label %48

37:                                               ; preds = %2
  %38 = load ptr, ptr %3, align 8
  %39 = getelementptr inbounds nuw %struct.macroblockd, ptr %38, i32 0, i32 6
  %40 = load ptr, ptr %39, align 8
  %41 = getelementptr inbounds ptr, ptr %40, i64 -1
  %42 = load ptr, ptr %41, align 8
  %43 = load ptr, ptr %3, align 8
  %44 = load i32, ptr %4, align 4
  %45 = load i8, ptr %7, align 1
  %46 = call zeroext i8 @get_ref_filter_type(ptr noundef %42, ptr noundef %43, i32 noundef %44, i8 noundef signext %45)
  %47 = zext i8 %46 to i32
  store i32 %47, ptr %9, align 4
  br label %48

48:                                               ; preds = %37, %2
  %49 = load ptr, ptr %3, align 8
  %50 = getelementptr inbounds nuw %struct.macroblockd, ptr %49, i32 0, i32 7
  %51 = load i8, ptr %50, align 16
  %52 = trunc i8 %51 to i1
  br i1 %52, label %53, label %69

53:                                               ; preds = %48
  %54 = load ptr, ptr %3, align 8
  %55 = getelementptr inbounds nuw %struct.macroblockd, ptr %54, i32 0, i32 6
  %56 = load ptr, ptr %55, align 8
  %57 = load ptr, ptr %3, align 8
  %58 = getelementptr inbounds nuw %struct.macroblockd, ptr %57, i32 0, i32 2
  %59 = load i32, ptr %58, align 8
  %60 = sub nsw i32 0, %59
  %61 = sext i32 %60 to i64
  %62 = getelementptr inbounds ptr, ptr %56, i64 %61
  %63 = load ptr, ptr %62, align 8
  %64 = load ptr, ptr %3, align 8
  %65 = load i32, ptr %4, align 4
  %66 = load i8, ptr %7, align 1
  %67 = call zeroext i8 @get_ref_filter_type(ptr noundef %63, ptr noundef %64, i32 noundef %65, i8 noundef signext %66)
  %68 = zext i8 %67 to i32
  store i32 %68, ptr %10, align 4
  br label %69

69:                                               ; preds = %53, %48
  %70 = load i32, ptr %9, align 4
  %71 = load i32, ptr %10, align 4
  %72 = icmp eq i32 %70, %71
  br i1 %72, label %73, label %77

73:                                               ; preds = %69
  %74 = load i32, ptr %9, align 4
  %75 = load i32, ptr %8, align 4
  %76 = add nsw i32 %75, %74
  store i32 %76, ptr %8, align 4
  br label %96

77:                                               ; preds = %69
  %78 = load i32, ptr %9, align 4
  %79 = icmp eq i32 %78, 3
  br i1 %79, label %80, label %84

80:                                               ; preds = %77
  %81 = load i32, ptr %10, align 4
  %82 = load i32, ptr %8, align 4
  %83 = add nsw i32 %82, %81
  store i32 %83, ptr %8, align 4
  br label %95

84:                                               ; preds = %77
  %85 = load i32, ptr %10, align 4
  %86 = icmp eq i32 %85, 3
  br i1 %86, label %87, label %91

87:                                               ; preds = %84
  %88 = load i32, ptr %9, align 4
  %89 = load i32, ptr %8, align 4
  %90 = add nsw i32 %89, %88
  store i32 %90, ptr %8, align 4
  br label %94

91:                                               ; preds = %84
  %92 = load i32, ptr %8, align 4
  %93 = add nsw i32 %92, 3
  store i32 %93, ptr %8, align 4
  br label %94

94:                                               ; preds = %91, %87
  br label %95

95:                                               ; preds = %94, %80
  br label %96

96:                                               ; preds = %95, %73
  %97 = load i32, ptr %8, align 4
  ret i32 %97
}