; Function Attrs: mustprogress nofree norecurse nosync nounwind willreturn memory(read, inaccessiblemem: none) uwtable
define hidden range(i32 0, 268) i32 @av1_get_pred_context_switchable_interp(ptr nocapture noundef readonly %0, i32 noundef %1) local_unnamed_addr #0 {
  %3 = getelementptr inbounds nuw i8, ptr %0, i64 7864
  %4 = load ptr, ptr %3, align 8
  %5 = load ptr, ptr %4, align 8
  %6 = getelementptr inbounds nuw i8, ptr %5, i64 16
  %7 = getelementptr inbounds i8, ptr %5, i64 17
  %8 = load i8, ptr %7, align 1
  %9 = icmp sgt i8 %8, 0
  %10 = select i1 %9, i32 4, i32 0
  %11 = load i8, ptr %6, align 8
  %12 = shl i32 %1, 3
  %13 = and i32 %12, 8
  %14 = or disjoint i32 %10, %13
  %15 = getelementptr inbounds nuw i8, ptr %0, i64 7873
  %16 = load i8, ptr %15, align 1
  %17 = trunc i8 %16 to i1
  br i1 %17, label %18, label %get_ref_filter_type.exit

18:                                               ; preds = %2
  %19 = getelementptr inbounds i8, ptr %4, i64 -8
  %20 = load ptr, ptr %19, align 8
  %21 = getelementptr inbounds nuw i8, ptr %20, i64 16
  %22 = load i8, ptr %21, align 8
  %23 = icmp eq i8 %22, %11
  br i1 %23, label %28, label %24

24:                                               ; preds = %18
  %25 = getelementptr inbounds i8, ptr %20, i64 17
  %26 = load i8, ptr %25, align 1
  %27 = icmp eq i8 %26, %11
  br i1 %27, label %28, label %get_ref_filter_type.exit

28:                                               ; preds = %24, %18
  %29 = getelementptr inbounds nuw i8, ptr %20, i64 20
  %30 = load i32, ptr %29, align 4
  %31 = shl i32 %1, 4
  %32 = and i32 %31, 16
  %33 = lshr i32 %30, %32
  %34 = and i32 %33, 255
  br label %get_ref_filter_type.exit

get_ref_filter_type.exit:                         ; preds = %28, %24, %2
  %.027 = phi i32 [ 3, %2 ], [ %34, %28 ], [ 3, %24 ]
  %35 = getelementptr inbounds nuw i8, ptr %0, i64 7872
  %36 = load i8, ptr %35, align 16
  %37 = trunc i8 %36 to i1
  br i1 %37, label %38, label %get_ref_filter_type.exit29

38:                                               ; preds = %get_ref_filter_type.exit
  %39 = getelementptr inbounds nuw i8, ptr %0, i64 8
  %40 = load i32, ptr %39, align 8
  %41 = sub nsw i32 0, %40
  %42 = sext i32 %41 to i64
  %43 = getelementptr inbounds ptr, ptr %4, i64 %42
  %44 = load ptr, ptr %43, align 8
  %45 = getelementptr inbounds nuw i8, ptr %44, i64 16
  %46 = load i8, ptr %45, align 8
  %47 = icmp eq i8 %46, %11
  br i1 %47, label %52, label %48

48:                                               ; preds = %38
  %49 = getelementptr inbounds i8, ptr %44, i64 17
  %50 = load i8, ptr %49, align 1
  %51 = icmp eq i8 %50, %11
  br i1 %51, label %52, label %get_ref_filter_type.exit29

52:                                               ; preds = %48, %38
  %53 = getelementptr inbounds nuw i8, ptr %44, i64 20
  %54 = load i32, ptr %53, align 4
  %55 = shl i32 %1, 4
  %56 = and i32 %55, 16
  %57 = lshr i32 %54, %56
  %58 = and i32 %57, 255
  br label %get_ref_filter_type.exit29

get_ref_filter_type.exit29:                       ; preds = %52, %48, %get_ref_filter_type.exit
  %.0 = phi i32 [ 3, %get_ref_filter_type.exit ], [ %58, %52 ], [ 3, %48 ]
  %59 = icmp eq i32 %.027, %.0
  br i1 %59, label %60, label %62

60:                                               ; preds = %get_ref_filter_type.exit29
  %61 = add nuw nsw i32 %.027, %14
  br label %72

62:                                               ; preds = %get_ref_filter_type.exit29
  %63 = icmp eq i32 %.027, 3
  br i1 %63, label %64, label %66

64:                                               ; preds = %62
  %65 = add nuw nsw i32 %.0, %14
  br label %72

66:                                               ; preds = %62
  %67 = icmp eq i32 %.0, 3
  br i1 %67, label %68, label %70

68:                                               ; preds = %66
  %69 = add nuw nsw i32 %.027, %14
  br label %72

70:                                               ; preds = %66
  %71 = or disjoint i32 %14, 3
  br label %72

72:                                               ; preds = %64, %70, %68, %60
  %.028 = phi i32 [ %61, %60 ], [ %65, %64 ], [ %69, %68 ], [ %71, %70 ]
  ret i32 %.028
}